(dp0
S'cfInc'
p1
cnumpy.core.multiarray
_reconstruct
p2
(cnumpy
ndarray
p3
(I0
tp4
S'b'
p5
tp6
Rp7
(I1
(I1
tp8
cnumpy
dtype
p9
(S'f4'
p10
I0
I1
tp11
Rp12
(I3
S'<'
p13
NNNI-1
I-1
I0
tp14
bI00
S'\x00\x00\x80>'
p15
tp16
bsS'rec_elec'
p17
S'both'
p18
sS'totalT'
p19
g2
(g3
(I0
tp20
g5
tp21
Rp22
(I1
(I1
tp23
g12
I00
S'\x00\x00\xfaD'
p24
tp25
bsS'epochSuccess'
p26
S'stopped'
p27
sS'average calibrated SPL'
p28
cnumpy.core.multiarray
scalar
p29
(g9
(S'f8'
p30
I0
I1
tp31
Rp32
(I3
S'<'
p33
NNNI-1
I-1
I0
tp34
bS'n\x15\xc4@\xd7\xe7T@'
p35
tp36
Rp37
sS'reps'
p38
g2
(g3
(I0
tp39
g5
tp40
Rp41
(I1
(I1
tp42
g12
I00
S'\x00\x00\x80?'
p43
tp44
bsS'intervalBetweenTones'
p45
g2
(g3
(I0
tp46
g5
tp47
Rp48
(I1
(I1
tp49
g12
I00
S'\x00\x00\xfaC'
p50
tp51
bsS'tone_number_003'
p52
g2
(g3
(I0
tp53
g5
tp54
Rp55
(I1
(I3
tp56
g32
I00
S'\x00\x00\x00\x00\x00@\xcf@\x00\x00\x00\x00\x00\x00D@\x12\xde\x1e\x84\x80\xa4G@'
p57
tp58
bsS'tone_number_000'
p59
g2
(g3
(I0
tp60
g5
tp61
Rp62
(I1
(I3
tp63
g32
I00
S'\x00\x00\x00\x00\x00@\xcf@\x00\x00\x00\x00\x00\x00D@\x12\xde\x1e\x84\x80\xa4G@'
p64
tp65
bsS'data_in_length001'
p66
I8000
sS'SPLsteps'
p67
g2
(g3
(I0
tp68
g5
tp69
Rp70
(I1
(I1
tp71
g12
I00
S'\x00\x00\x00\x00'
p72
tp73
bsS'SPLmax'
p74
g2
(g3
(I0
tp75
g5
tp76
Rp77
(I1
(I1
tp78
g12
I00
S'\x00\x00 B'
p79
tp80
bsS'tone_number_004'
p81
g2
(g3
(I0
tp82
g5
tp83
Rp84
(I1
(I3
tp85
g32
I00
S'\x00\x00\x00\x00\x00@\xcf@\x00\x00\x00\x00\x00\x00D@\x12\xde\x1e\x84\x80\xa4G@'
p86
tp87
bsS'tone_number_005'
p88
g2
(g3
(I0
tp89
g5
tp90
Rp91
(I1
(I3
tp92
g32
I00
S'\x00\x00\x00\x00\x00@\xcf@\x00\x00\x00\x00\x00\x00D@\x12\xde\x1e\x84\x80\xa4G@'
p93
tp94
bsS'date'
p95
S'150321'
p96
sS'data_out_length'
p97
I10000
sS'stim_elec'
p98
S'E1'
p99
sS'tone_number_002'
p100
g2
(g3
(I0
tp101
g5
tp102
Rp103
(I1
(I3
tp104
g32
I00
S'\x00\x00\x00\x00\x00@\xcf@\x00\x00\x00\x00\x00\x00D@\x12\xde\x1e\x84\x80\xa4G@'
p105
tp106
bsS'data_in_length002'
p107
I10801
sS'data_in_length003'
p108
I10800
sS'data_in_length000'
p109
I10000
sS'hold'
p110
(g2
(g3
(I0
tp111
g5
tp112
Rp113
(I1
(I5
tp114
g12
I00
S'\x00\x00\x00\x00\x00\x00\x00\x00\x00\x00\x00\x00\x00\x00\x00\x00\x00\x00\x00A'
p115
tp116
bg2
(g3
(I0
tp117
g5
tp118
Rp119
(I1
(I5
tp120
g12
I00
S'\x00\x00\x00\x00\x00\x00\x00\x00\x00\x00\x00\x00\x00\x00\x00\x00\x00\x00\x00A'
p121
tp122
btp123
sS'data_in_length004'
p124
I10801
sS'toneDuration'
p125
g2
(g3
(I0
tp126
g5
tp127
Rp128
(I1
(I1
tp129
g12
I00
S'\x00\x00HB'
p130
tp131
bsS'data_list_length'
p132
I5
sS'riseTime'
p133
g2
(g3
(I0
tp134
g5
tp135
Rp136
(I1
(I6
tp137
g12
I00
S'\x00\x00\x80?\x00\x00\x00@\x00\x00\xa0@\x00\x00 A\x00\x00pA\x00\x00\xa0A'
p138
tp139
bsS'filename'
p140
S'C:\\Users\\reyesadmin\\experiments\\in_vivo_data_en\\150321\\A004d.p'
p141
sS'cell'
p142
S'A'
p143
sS'sound'
p144
g2
(g3
(I0
tp145
g5
tp146
Rp147
(I1
(I1
tp148
g12
I00
S'\x00\x00\x80?'
p149
tp150
bsS'tone_number_001'
p151
g2
(g3
(I0
tp152
g5
tp153
Rp154
(I1
(I3
tp155
g32
I00
S'\x00\x00\x00\x00\x00@\xcf@\x00\x00\x00\x00\x00\x00D@\x12\xde\x1e\x84\x80\xa4G@'
p156
tp157
bsS'acutal_duration'
p158
g29
(g32
S'43333\xb0\xb3@'
p159
tp160
Rp161
sS'mode'
p162
(lp163
I0
aI0
asS'time'
p164
ctime
struct_time
p165
((I2015
I3
I21
I15
I54
I40
I5
I80
I1
tp166
(dp167
tp168
Rp169
sS'cfSteps'
p170
g2
(g3
(I0
tp171
g5
tp172
Rp173
(I1
(I1
tp174
g12
I00
S'\x00\x00\x00\x00'
p175
tp176
bsS'SPLmin'
p177
g2
(g3
(I0
tp178
g5
tp179
Rp180
(I1
(I1
tp181
g12
I00
S'\x00\x00 B'
p182
tp183
bsS'type'
p184
S'contrecording'
p185
sS'display'
p186
g2
(g3
(I0
tp187
g5
tp188
Rp189
(I1
(I1
tp190
g12
I00
S'\x00\x00zD'
p191
tp192
bsS'cfEstimate'
p193
g2
(g3
(I0
tp194
g5
tp195
Rp196
(I1
(I1
tp197
g12
I00
S'\x00\x00\x80A'
p198
tp199
bs.